; Function Attrs: mustprogress uwtable
define void @_Z16dd_move_f_vsitesRK12gmx_domdec_tN3gmx8ArrayRefINS2_11BasicVectorIfEEEES6_(ptr noundef nonnull align 8 dereferenceable(1072) %0, ptr %1, ptr readnone captures(none) %2, ptr %3, ptr readnone captures(none) %4) local_unnamed_addr #0 {
  %6 = getelementptr inbounds nuw i8, ptr %0, i64 824
  %7 = load ptr, ptr %6, align 8, !tbaa !4
  %.not = icmp eq ptr %7, null
  br i1 %.not, label %9, label %8

8:                                                ; preds = %5
  tail call void @_Z16dd_move_f_specatPK12gmx_domdec_tP24gmx_domdec_specat_comm_tPN3gmx11BasicVectorIfEES7_(ptr noundef nonnull %0, ptr noundef nonnull %7, ptr noundef %1, ptr noundef %3)
  br label %9

9:                                                ; preds = %8, %5
  ret void
}